; Function Attrs: mustprogress nounwind uwtable
define hidden void @_ZN27G1RedirtyCardsLocalQueueSet5flushEv(ptr dead_on_unwind noalias nocapture writable writeonly sret(%struct.BufferNodeList) align 8 %0, ptr noundef nonnull align 8 dereferenceable(64) %1) local_unnamed_addr #0 align 2 {
  %3 = alloca %struct.BufferNodeList, align 8
  %4 = getelementptr inbounds i8, ptr %1, i64 48
  tail call void @_ZN11PtrQueueSet11flush_queueER8PtrQueue(ptr noundef nonnull align 8 dereferenceable(16) %1, ptr noundef nonnull align 8 dereferenceable(16) %4) #6
  %5 = getelementptr inbounds i8, ptr %1, i64 24
  tail call void @llvm.memcpy.p0.p0.i64(ptr noundef nonnull align 8 dereferenceable(24) %0, ptr noundef nonnull align 8 dereferenceable(24) %5, i64 24, i1 false)
  %6 = getelementptr inbounds i8, ptr %1, i64 16
  %7 = load ptr, ptr %6, align 8
  %8 = load ptr, ptr %5, align 8
  %.not.i = icmp eq ptr %8, null
  br i1 %.not.i, label %_ZN22G1RedirtyCardsQueueSet14add_bufferlistERK14BufferNodeList.exit, label %9

9:                                                ; preds = %2
  %10 = getelementptr inbounds i8, ptr %7, i64 272
  %11 = getelementptr inbounds i8, ptr %1, i64 40
  %12 = load i64, ptr %11, align 8
  %13 = tail call noundef i64 asm sideeffect "lock xaddq $0,($2)", "=r,0,r,~{cc},~{memory},~{dirflag},~{fpsr},~{flags}"(i64 %12, ptr nonnull %10) #6, !srcloc !6
  %14 = getelementptr inbounds i8, ptr %7, i64 144
  %15 = load ptr, ptr %5, align 8
  %16 = getelementptr inbounds i8, ptr %1, i64 32
  %17 = load ptr, ptr %16, align 8
  %18 = load volatile ptr, ptr %14, align 8
  %19 = getelementptr inbounds i8, ptr %17, i64 8
  br label %20

20:                                               ; preds = %20, %9
  %.0.i.i.i = phi ptr [ %18, %9 ], [ %21, %20 ]
  store volatile ptr %.0.i.i.i, ptr %19, align 8
  %21 = tail call noundef ptr asm sideeffect "lock cmpxchgq $1,($3)", "={ax},r,{ax},r,~{cc},~{memory},~{dirflag},~{fpsr},~{flags}"(ptr nonnull %15, ptr %.0.i.i.i, ptr nonnull %14) #6, !srcloc !7
  %.not.i.i.i = icmp eq ptr %.0.i.i.i, %21
  br i1 %.not.i.i.i, label %_ZN13LockFreeStackI10BufferNodeXadL_ZNS0_8next_ptrERS0_EEE7prependES1_S1_.exit.i, label %20, !llvm.loop !8

_ZN13LockFreeStackI10BufferNodeXadL_ZNS0_8next_ptrERS0_EEE7prependES1_S1_.exit.i: ; preds = %20
  %22 = load ptr, ptr %16, align 8
  %23 = getelementptr inbounds i8, ptr %22, i64 8
  %24 = load volatile ptr, ptr %23, align 8
  %25 = icmp eq ptr %24, null
  br i1 %25, label %26, label %_ZN22G1RedirtyCardsQueueSet14add_bufferlistERK14BufferNodeList.exit

26:                                               ; preds = %_ZN13LockFreeStackI10BufferNodeXadL_ZNS0_8next_ptrERS0_EEE7prependES1_S1_.exit.i
  %27 = getelementptr inbounds i8, ptr %7, i64 400
  store ptr %22, ptr %27, align 8
  br label %_ZN22G1RedirtyCardsQueueSet14add_bufferlistERK14BufferNodeList.exit

_ZN22G1RedirtyCardsQueueSet14add_bufferlistERK14BufferNodeList.exit: ; preds = %2, %_ZN13LockFreeStackI10BufferNodeXadL_ZNS0_8next_ptrERS0_EEE7prependES1_S1_.exit.i, %26
  call void @_ZN14BufferNodeListC1Ev(ptr noundef nonnull align 8 dereferenceable(24) %3) #6
  call void @llvm.memcpy.p0.p0.i64(ptr noundef nonnull align 8 dereferenceable(24) %5, ptr noundef nonnull align 8 dereferenceable(24) %3, i64 24, i1 false)
  ret void
}